target datalayout = "e-m:e-p270:32:32-p271:32:32-p272:64:64-i64:64-i128:128-f80:128-n8:16:32:64-S128"
target triple = "x86_64-pc-linux-gnu"

%struct.expert_field = type { i32, i32 }

@hf_1722_aaf_seqnum = internal global i32 0, align 4
@hf_1722_aaf_tufield = internal global i32 0, align 4
@hf_1722_aaf_stream_id = internal global i32 0, align 4
@hf_1722_aaf_avtp_timestamp = internal global i32 0, align 4
@hf_1722_aaf_format = internal global i32 0, align 4
@hf_1722_aaf_nominal_sample_rate = internal global i32 0, align 4
@hf_1722_aaf_channels_per_frame = internal global i32 0, align 4
@hf_1722_aaf_bit_depth = internal global i32 0, align 4
@hf_1722_aaf_stream_data_length = internal global i32 0, align 4
@hf_1722_aaf_reserved = internal global i32 0, align 4
@hf_1722_aaf_data = internal global i32 0, align 4
@hf_1722_aaf_sample = internal global i32 0, align 4
@ei_aaf_sample_width = internal global %struct.expert_field zeroinitializer, align 4
@ei_aaf_reserved_format = internal global %struct.expert_field zeroinitializer, align 4
@ei_aaf_aes3_format = internal global %struct.expert_field zeroinitializer, align 4
@ei_aaf_channels_per_frame = internal global %struct.expert_field zeroinitializer, align 4
@ei_aaf_incorrect_bit_depth = internal global %struct.expert_field zeroinitializer, align 4
@ett_1722_aaf = internal global i32 0, align 4
@ett_1722_aaf_audio = internal global i32 0, align 4
@ett_1722_aaf_sample = internal global i32 0, align 4
@proto_1722_aaf = internal global i32 0, align 4
@dissect_1722_aaf.fields = internal constant [3 x ptr] [ptr @hf_1722_aaf_mrfield, ptr @hf_1722_aaf_tvfield, ptr null], align 16
@dissect_1722_aaf.fields_pcm = internal constant [3 x ptr] [ptr @hf_1722_aaf_sparse_timestamp, ptr @hf_1722_aaf_evtfield, ptr null], align 16
@.str.383 = private unnamed_addr constant [16 x i8] c"Sample Chunk %d\00", align 1
@.str.384 = private unnamed_addr constant [13 x i8] c"Channel: %d \00", align 1

; Function Attrs: null_pointer_is_valid sspstrong uwtable
define internal i32 @dissect_1722_aaf(ptr noundef %0, ptr noundef %1, ptr noundef %2, ptr noundef %3) #0 {
  %5 = alloca ptr, align 8
  %6 = alloca ptr, align 8
  %7 = alloca ptr, align 8
  %8 = alloca ptr, align 8
  %9 = alloca ptr, align 8
  %10 = alloca ptr, align 8
  %11 = alloca ptr, align 8
  %12 = alloca ptr, align 8
  %13 = alloca ptr, align 8
  %14 = alloca ptr, align 8
  %15 = alloca i32, align 4
  %16 = alloca i32, align 4
  %17 = alloca i32, align 4
  %18 = alloca i32, align 4
  %19 = alloca i32, align 4
  %20 = alloca i32, align 4
  %21 = alloca i32, align 4
  %22 = alloca i32, align 4
  store ptr %0, ptr %5, align 8
  store ptr %1, ptr %6, align 8
  store ptr %2, ptr %7, align 8
  store ptr %3, ptr %8, align 8
  call void @llvm.lifetime.start.p0(i64 8, ptr %9) #9
  call void @llvm.lifetime.start.p0(i64 8, ptr %10) #9
  call void @llvm.lifetime.start.p0(i64 8, ptr %11) #9
  call void @llvm.lifetime.start.p0(i64 8, ptr %12) #9
  call void @llvm.lifetime.start.p0(i64 8, ptr %13) #9
  call void @llvm.lifetime.start.p0(i64 8, ptr %14) #9
  call void @llvm.lifetime.start.p0(i64 4, ptr %15) #9
  store i32 1, ptr %15, align 4
  call void @llvm.lifetime.start.p0(i64 4, ptr %16) #9
  store i32 0, ptr %16, align 4
  call void @llvm.lifetime.start.p0(i64 4, ptr %17) #9
  store i32 0, ptr %17, align 4
  call void @llvm.lifetime.start.p0(i64 4, ptr %18) #9
  store i32 0, ptr %18, align 4
  call void @llvm.lifetime.start.p0(i64 4, ptr %19) #9
  store i32 0, ptr %19, align 4
  call void @llvm.lifetime.start.p0(i64 4, ptr %20) #9
  store i32 0, ptr %20, align 4
  call void @llvm.lifetime.start.p0(i64 4, ptr %21) #9
  store i32 0, ptr %21, align 4
  call void @llvm.lifetime.start.p0(i64 4, ptr %22) #9
  store i32 0, ptr %22, align 4
  %23 = load ptr, ptr %7, align 8
  %24 = load i32, ptr @proto_1722_aaf, align 4
  %25 = load ptr, ptr %5, align 8
  %26 = call ptr @proto_tree_add_item(ptr noundef %23, i32 noundef %24, ptr noundef %25, i32 noundef 0, i32 noundef -1, i32 noundef 0)
  store ptr %26, ptr %9, align 8
  %27 = load ptr, ptr %9, align 8
  %28 = load i32, ptr @ett_1722_aaf, align 4
  %29 = call ptr @proto_item_add_subtree(ptr noundef %27, i32 noundef %28)
  store ptr %29, ptr %10, align 8
  %30 = load ptr, ptr %10, align 8
  %31 = load ptr, ptr %5, align 8
  %32 = load i32, ptr %15, align 4
  call void @proto_tree_add_bitmask_list(ptr noundef %30, ptr noundef %31, i32 noundef %32, i32 noundef 1, ptr noundef @dissect_1722_aaf.fields, i32 noundef 0)
  %33 = load i32, ptr %15, align 4
  %34 = add i32 %33, 1
  store i32 %34, ptr %15, align 4
  %35 = load ptr, ptr %10, align 8
  %36 = load i32, ptr @hf_1722_aaf_seqnum, align 4
  %37 = load ptr, ptr %5, align 8
  %38 = load i32, ptr %15, align 4
  %39 = call ptr @proto_tree_add_item(ptr noundef %35, i32 noundef %36, ptr noundef %37, i32 noundef %38, i32 noundef 1, i32 noundef 0)
  %40 = load i32, ptr %15, align 4
  %41 = add i32 %40, 1
  store i32 %41, ptr %15, align 4
  %42 = load ptr, ptr %10, align 8
  %43 = load i32, ptr @hf_1722_aaf_tufield, align 4
  %44 = load ptr, ptr %5, align 8
  %45 = load i32, ptr %15, align 4
  %46 = call ptr @proto_tree_add_item(ptr noundef %42, i32 noundef %43, ptr noundef %44, i32 noundef %45, i32 noundef 1, i32 noundef 0)
  %47 = load i32, ptr %15, align 4
  %48 = add i32 %47, 1
  store i32 %48, ptr %15, align 4
  %49 = load ptr, ptr %10, align 8
  %50 = load i32, ptr @hf_1722_aaf_stream_id, align 4
  %51 = load ptr, ptr %5, align 8
  %52 = load i32, ptr %15, align 4
  %53 = call ptr @proto_tree_add_item(ptr noundef %49, i32 noundef %50, ptr noundef %51, i32 noundef %52, i32 noundef 8, i32 noundef 0)
  %54 = load i32, ptr %15, align 4
  %55 = add i32 %54, 8
  store i32 %55, ptr %15, align 4
  %56 = load ptr, ptr %10, align 8
  %57 = load i32, ptr @hf_1722_aaf_avtp_timestamp, align 4
  %58 = load ptr, ptr %5, align 8
  %59 = load i32, ptr %15, align 4
  %60 = call ptr @proto_tree_add_item(ptr noundef %56, i32 noundef %57, ptr noundef %58, i32 noundef %59, i32 noundef 4, i32 noundef 0)
  %61 = load i32, ptr %15, align 4
  %62 = add i32 %61, 4
  store i32 %62, ptr %15, align 4
  %63 = load ptr, ptr %10, align 8
  %64 = load i32, ptr @hf_1722_aaf_format, align 4
  %65 = load ptr, ptr %5, align 8
  %66 = load i32, ptr %15, align 4
  %67 = call ptr @proto_tree_add_item_ret_uint(ptr noundef %63, i32 noundef %64, ptr noundef %65, i32 noundef %66, i32 noundef 1, i32 noundef 0, ptr noundef %20)
  store ptr %67, ptr %12, align 8
  %68 = load i32, ptr %15, align 4
  %69 = add i32 %68, 1
  store i32 %69, ptr %15, align 4
  %70 = load i32, ptr %20, align 4
  switch i32 %70, label %76 [
    i32 0, label %77
    i32 1, label %71
    i32 2, label %72
    i32 3, label %73
    i32 4, label %74
    i32 5, label %75
  ]

71:                                               ; preds = %4
  store i32 32, ptr %19, align 4
  br label %77

72:                                               ; preds = %4
  store i32 32, ptr %19, align 4
  br label %77

73:                                               ; preds = %4
  store i32 24, ptr %19, align 4
  br label %77

74:                                               ; preds = %4
  store i32 16, ptr %19, align 4
  br label %77

75:                                               ; preds = %4
  store i32 32, ptr %19, align 4
  br label %77

76:                                               ; preds = %4
  br label %77

77:                                               ; preds = %76, %75, %74, %73, %72, %71, %4
  %78 = load i32, ptr %20, align 4
  %79 = icmp ult i32 %78, 5
  br i1 %79, label %80, label %197

80:                                               ; preds = %77
  %81 = load ptr, ptr %10, align 8
  %82 = load i32, ptr @hf_1722_aaf_nominal_sample_rate, align 4
  %83 = load ptr, ptr %5, align 8
  %84 = load i32, ptr %15, align 4
  %85 = call ptr @proto_tree_add_item(ptr noundef %81, i32 noundef %82, ptr noundef %83, i32 noundef %84, i32 noundef 2, i32 noundef 0)
  %86 = load ptr, ptr %10, align 8
  %87 = load i32, ptr @hf_1722_aaf_channels_per_frame, align 4
  %88 = load ptr, ptr %5, align 8
  %89 = load i32, ptr %15, align 4
  %90 = call ptr @proto_tree_add_item_ret_uint(ptr noundef %86, i32 noundef %87, ptr noundef %88, i32 noundef %89, i32 noundef 2, i32 noundef 0, ptr noundef %17)
  store ptr %90, ptr %11, align 8
  %91 = load i32, ptr %17, align 4
  %92 = icmp eq i32 %91, 0
  br i1 %92, label %93, label %97

93:                                               ; preds = %80
  %94 = load ptr, ptr %6, align 8
  %95 = load ptr, ptr %11, align 8
  %96 = call ptr @expert_add_info(ptr noundef %94, ptr noundef %95, ptr noundef @ei_aaf_channels_per_frame)
  br label %196

97:                                               ; preds = %80
  %98 = load i32, ptr %15, align 4
  %99 = add i32 %98, 2
  store i32 %99, ptr %15, align 4
  %100 = load ptr, ptr %10, align 8
  %101 = load i32, ptr @hf_1722_aaf_bit_depth, align 4
  %102 = load ptr, ptr %5, align 8
  %103 = load i32, ptr %15, align 4
  %104 = call ptr @proto_tree_add_item_ret_uint(ptr noundef %100, i32 noundef %101, ptr noundef %102, i32 noundef %103, i32 noundef 1, i32 noundef 0, ptr noundef %18)
  store ptr %104, ptr %9, align 8
  %105 = load i32, ptr %18, align 4
  %106 = icmp eq i32 %105, 0
  br i1 %106, label %111, label %107

107:                                              ; preds = %97
  %108 = load i32, ptr %18, align 4
  %109 = load i32, ptr %19, align 4
  %110 = icmp ugt i32 %108, %109
  br i1 %110, label %111, label %115

111:                                              ; preds = %107, %97
  %112 = load ptr, ptr %6, align 8
  %113 = load ptr, ptr %9, align 8
  %114 = call ptr @expert_add_info(ptr noundef %112, ptr noundef %113, ptr noundef @ei_aaf_incorrect_bit_depth)
  br label %115

115:                                              ; preds = %111, %107
  %116 = load i32, ptr %15, align 4
  %117 = add i32 %116, 1
  store i32 %117, ptr %15, align 4
  %118 = load ptr, ptr %10, align 8
  %119 = load i32, ptr @hf_1722_aaf_stream_data_length, align 4
  %120 = load ptr, ptr %5, align 8
  %121 = load i32, ptr %15, align 4
  %122 = call ptr @proto_tree_add_item_ret_uint(ptr noundef %118, i32 noundef %119, ptr noundef %120, i32 noundef %121, i32 noundef 2, i32 noundef 0, ptr noundef %16)
  %123 = load i32, ptr %15, align 4
  %124 = add i32 %123, 2
  store i32 %124, ptr %15, align 4
  %125 = load ptr, ptr %10, align 8
  %126 = load ptr, ptr %5, align 8
  %127 = load i32, ptr %15, align 4
  call void @proto_tree_add_bitmask_list(ptr noundef %125, ptr noundef %126, i32 noundef %127, i32 noundef 1, ptr noundef @dissect_1722_aaf.fields_pcm, i32 noundef 0)
  %128 = load i32, ptr %15, align 4
  %129 = add i32 %128, 1
  store i32 %129, ptr %15, align 4
  %130 = load ptr, ptr %10, align 8
  %131 = load i32, ptr @hf_1722_aaf_reserved, align 4
  %132 = load ptr, ptr %5, align 8
  %133 = load i32, ptr %15, align 4
  %134 = call ptr @proto_tree_add_item(ptr noundef %130, i32 noundef %131, ptr noundef %132, i32 noundef %133, i32 noundef 1, i32 noundef 0)
  %135 = load i32, ptr %15, align 4
  %136 = add i32 %135, 1
  store i32 %136, ptr %15, align 4
  %137 = load ptr, ptr %10, align 8
  %138 = load i32, ptr @hf_1722_aaf_data, align 4
  %139 = load ptr, ptr %5, align 8
  %140 = load i32, ptr %15, align 4
  %141 = load i32, ptr %16, align 4
  %142 = call ptr @proto_tree_add_item(ptr noundef %137, i32 noundef %138, ptr noundef %139, i32 noundef %140, i32 noundef %141, i32 noundef 0)
  store ptr %142, ptr %9, align 8
  %143 = load ptr, ptr %9, align 8
  %144 = load i32, ptr @ett_1722_aaf_audio, align 4
  %145 = call ptr @proto_item_add_subtree(ptr noundef %143, i32 noundef %144)
  store ptr %145, ptr %13, align 8
  %146 = load i32, ptr %19, align 4
  %147 = icmp eq i32 %146, 0
  br i1 %147, label %148, label %152

148:                                              ; preds = %115
  %149 = load ptr, ptr %6, align 8
  %150 = load ptr, ptr %9, align 8
  %151 = call ptr @expert_add_info(ptr noundef %149, ptr noundef %150, ptr noundef @ei_aaf_sample_width)
  br label %195

152:                                              ; preds = %115
  store i32 0, ptr %22, align 4
  br label %153

153:                                              ; preds = %191, %152
  %154 = load i32, ptr %22, align 4
  %155 = load i32, ptr %16, align 4
  %156 = mul i32 %155, 8
  %157 = load i32, ptr %17, align 4
  %158 = load i32, ptr %19, align 4
  %159 = mul i32 %157, %158
  %160 = udiv i32 %156, %159
  %161 = icmp ult i32 %154, %160
  br i1 %161, label %162, label %194

162:                                              ; preds = %153
  %163 = load ptr, ptr %13, align 8
  %164 = load ptr, ptr %5, align 8
  %165 = load i32, ptr %15, align 4
  %166 = load i32, ptr @ett_1722_aaf_sample, align 4
  %167 = load i32, ptr %22, align 4
  %168 = call ptr (ptr, ptr, i32, i32, i32, ptr, ptr, ...) @proto_tree_add_subtree_format(ptr noundef %163, ptr noundef %164, i32 noundef %165, i32 noundef 1, i32 noundef %166, ptr noundef null, ptr noundef @.str.383, i32 noundef %167)
  store ptr %168, ptr %14, align 8
  store i32 0, ptr %21, align 4
  br label %169

169:                                              ; preds = %187, %162
  %170 = load i32, ptr %21, align 4
  %171 = load i32, ptr %17, align 4
  %172 = icmp ult i32 %170, %171
  br i1 %172, label %173, label %190

173:                                              ; preds = %169
  %174 = load ptr, ptr %14, align 8
  %175 = load i32, ptr @hf_1722_aaf_sample, align 4
  %176 = load ptr, ptr %5, align 8
  %177 = load i32, ptr %15, align 4
  %178 = load i32, ptr %19, align 4
  %179 = udiv i32 %178, 8
  %180 = call ptr @proto_tree_add_item(ptr noundef %174, i32 noundef %175, ptr noundef %176, i32 noundef %177, i32 noundef %179, i32 noundef 0)
  store ptr %180, ptr %9, align 8
  %181 = load ptr, ptr %9, align 8
  %182 = load i32, ptr %21, align 4
  call void (ptr, ptr, ...) @proto_item_prepend_text(ptr noundef %181, ptr noundef @.str.384, i32 noundef %182)
  %183 = load i32, ptr %19, align 4
  %184 = udiv i32 %183, 8
  %185 = load i32, ptr %15, align 4
  %186 = add i32 %185, %184
  store i32 %186, ptr %15, align 4
  br label %187

187:                                              ; preds = %173
  %188 = load i32, ptr %21, align 4
  %189 = add i32 %188, 1
  store i32 %189, ptr %21, align 4
  br label %169, !llvm.loop !10

190:                                              ; preds = %169
  br label %191

191:                                              ; preds = %190
  %192 = load i32, ptr %22, align 4
  %193 = add i32 %192, 1
  store i32 %193, ptr %22, align 4
  br label %153, !llvm.loop !11

194:                                              ; preds = %153
  br label %195

195:                                              ; preds = %194, %148
  br label %196

196:                                              ; preds = %195, %93
  br label %209

197:                                              ; preds = %77
  %198 = load i32, ptr %20, align 4
  %199 = icmp eq i32 %198, 5
  br i1 %199, label %200, label %204

200:                                              ; preds = %197
  %201 = load ptr, ptr %6, align 8
  %202 = load ptr, ptr %12, align 8
  %203 = call ptr @expert_add_info(ptr noundef %201, ptr noundef %202, ptr noundef @ei_aaf_aes3_format)
  br label %208

204:                                              ; preds = %197
  %205 = load ptr, ptr %6, align 8
  %206 = load ptr, ptr %12, align 8
  %207 = call ptr @expert_add_info(ptr noundef %205, ptr noundef %206, ptr noundef @ei_aaf_reserved_format)
  br label %208

208:                                              ; preds = %204, %200
  br label %209

209:                                              ; preds = %208, %196
  %210 = load ptr, ptr %5, align 8
  %211 = call i32 @tvb_captured_length(ptr noundef %210)
  call void @llvm.lifetime.end.p0(i64 4, ptr %22) #9
  call void @llvm.lifetime.end.p0(i64 4, ptr %21) #9
  call void @llvm.lifetime.end.p0(i64 4, ptr %20) #9
  call void @llvm.lifetime.end.p0(i64 4, ptr %19) #9
  call void @llvm.lifetime.end.p0(i64 4, ptr %18) #9
  call void @llvm.lifetime.end.p0(i64 4, ptr %17) #9
  call void @llvm.lifetime.end.p0(i64 4, ptr %16) #9
  call void @llvm.lifetime.end.p0(i64 4, ptr %15) #9
  call void @llvm.lifetime.end.p0(i64 8, ptr %14) #9
  call void @llvm.lifetime.end.p0(i64 8, ptr %13) #9
  call void @llvm.lifetime.end.p0(i64 8, ptr %12) #9
  call void @llvm.lifetime.end.p0(i64 8, ptr %11) #9
  call void @llvm.lifetime.end.p0(i64 8, ptr %10) #9
  call void @llvm.lifetime.end.p0(i64 8, ptr %9) #9
  ret i32 %211
}