; Function Attrs: null_pointer_is_valid sspstrong uwtable
define internal i32 @dissect_1722_aaf(ptr noundef %0, ptr noundef %1, ptr noundef %2, ptr readnone captures(none) %3) #0 {
  %5 = alloca i32, align 4
  %6 = alloca i32, align 4
  %7 = alloca i32, align 4
  %8 = alloca i32, align 4
  call void @llvm.lifetime.start.p0(i64 4, ptr nonnull %5) #7
  store i32 0, ptr %5, align 4
  call void @llvm.lifetime.start.p0(i64 4, ptr nonnull %6) #7
  store i32 0, ptr %6, align 4
  call void @llvm.lifetime.start.p0(i64 4, ptr nonnull %7) #7
  store i32 0, ptr %7, align 4
  call void @llvm.lifetime.start.p0(i64 4, ptr nonnull %8) #7
  store i32 0, ptr %8, align 4
  %9 = load i32, ptr @proto_1722_aaf, align 4
  %10 = tail call ptr @proto_tree_add_item(ptr noundef %2, i32 noundef %9, ptr noundef %0, i32 noundef 0, i32 noundef -1, i32 noundef 0)
  %11 = load i32, ptr @ett_1722_aaf, align 4
  %12 = tail call ptr @proto_item_add_subtree(ptr noundef %10, i32 noundef %11)
  tail call void @proto_tree_add_bitmask_list(ptr noundef %12, ptr noundef %0, i32 noundef 1, i32 noundef 1, ptr noundef nonnull @dissect_1722_aaf.fields, i32 noundef 0)
  %13 = load i32, ptr @hf_1722_aaf_seqnum, align 4
  %14 = tail call ptr @proto_tree_add_item(ptr noundef %12, i32 noundef %13, ptr noundef %0, i32 noundef 2, i32 noundef 1, i32 noundef 0)
  %15 = load i32, ptr @hf_1722_aaf_tufield, align 4
  %16 = tail call ptr @proto_tree_add_item(ptr noundef %12, i32 noundef %15, ptr noundef %0, i32 noundef 3, i32 noundef 1, i32 noundef 0)
  %17 = load i32, ptr @hf_1722_aaf_stream_id, align 4
  %18 = tail call ptr @proto_tree_add_item(ptr noundef %12, i32 noundef %17, ptr noundef %0, i32 noundef 4, i32 noundef 8, i32 noundef 0)
  %19 = load i32, ptr @hf_1722_aaf_avtp_timestamp, align 4
  %20 = tail call ptr @proto_tree_add_item(ptr noundef %12, i32 noundef %19, ptr noundef %0, i32 noundef 12, i32 noundef 4, i32 noundef 0)
  %21 = load i32, ptr @hf_1722_aaf_format, align 4
  %22 = call ptr @proto_tree_add_item_ret_uint(ptr noundef %12, i32 noundef %21, ptr noundef %0, i32 noundef 16, i32 noundef 1, i32 noundef 0, ptr noundef nonnull %8)
  %23 = load i32, ptr %8, align 4
  switch i32 %23, label %26 [
    i32 5, label %25
    i32 1, label %25
    i32 2, label %25
    i32 3, label %.thread
    i32 4, label %24
  ]

24:                                               ; preds = %4
  br label %.thread

25:                                               ; preds = %4, %4, %4
  br label %26

26:                                               ; preds = %4, %25
  %27 = phi i1 [ true, %4 ], [ false, %25 ]
  %.084 = phi i32 [ 0, %4 ], [ 32, %25 ]
  %28 = icmp ult i32 %23, 5
  br i1 %28, label %.thread, label %79

.thread:                                          ; preds = %4, %24, %26
  %.08489 = phi i32 [ %.084, %26 ], [ 16, %24 ], [ 24, %4 ]
  %29 = phi i1 [ %27, %26 ], [ false, %24 ], [ false, %4 ]
  %30 = load i32, ptr @hf_1722_aaf_nominal_sample_rate, align 4
  %31 = call ptr @proto_tree_add_item(ptr noundef %12, i32 noundef %30, ptr noundef %0, i32 noundef 17, i32 noundef 2, i32 noundef 0)
  %32 = load i32, ptr @hf_1722_aaf_channels_per_frame, align 4
  %33 = call ptr @proto_tree_add_item_ret_uint(ptr noundef %12, i32 noundef %32, ptr noundef %0, i32 noundef 17, i32 noundef 2, i32 noundef 0, ptr noundef nonnull %6)
  %34 = load i32, ptr %6, align 4
  %35 = icmp eq i32 %34, 0
  br i1 %35, label %36, label %38

36:                                               ; preds = %.thread
  %37 = call ptr @expert_add_info(ptr noundef %1, ptr noundef %33, ptr noundef nonnull @ei_aaf_channels_per_frame)
  br label %.loopexit

38:                                               ; preds = %.thread
  %39 = load i32, ptr @hf_1722_aaf_bit_depth, align 4
  %40 = call ptr @proto_tree_add_item_ret_uint(ptr noundef %12, i32 noundef %39, ptr noundef %0, i32 noundef 19, i32 noundef 1, i32 noundef 0, ptr noundef nonnull %7)
  %41 = load i32, ptr %7, align 4
  %42 = add i32 %41, -1
  %or.cond.not = icmp ult i32 %42, %.08489
  br i1 %or.cond.not, label %45, label %43

43:                                               ; preds = %38
  %44 = call ptr @expert_add_info(ptr noundef %1, ptr noundef %40, ptr noundef nonnull @ei_aaf_incorrect_bit_depth)
  br label %45

45:                                               ; preds = %38, %43
  %46 = load i32, ptr @hf_1722_aaf_stream_data_length, align 4
  %47 = call ptr @proto_tree_add_item_ret_uint(ptr noundef %12, i32 noundef %46, ptr noundef %0, i32 noundef 20, i32 noundef 2, i32 noundef 0, ptr noundef nonnull %5)
  call void @proto_tree_add_bitmask_list(ptr noundef %12, ptr noundef %0, i32 noundef 22, i32 noundef 1, ptr noundef nonnull @dissect_1722_aaf.fields_pcm, i32 noundef 0)
  %48 = load i32, ptr @hf_1722_aaf_reserved, align 4
  %49 = call ptr @proto_tree_add_item(ptr noundef %12, i32 noundef %48, ptr noundef %0, i32 noundef 23, i32 noundef 1, i32 noundef 0)
  %50 = load i32, ptr @hf_1722_aaf_data, align 4
  %51 = load i32, ptr %5, align 4
  %52 = call ptr @proto_tree_add_item(ptr noundef %12, i32 noundef %50, ptr noundef %0, i32 noundef 24, i32 noundef %51, i32 noundef 0)
  %53 = load i32, ptr @ett_1722_aaf_audio, align 4
  %54 = call ptr @proto_item_add_subtree(ptr noundef %52, i32 noundef %53)
  br i1 %29, label %60, label %.preheader

.preheader:                                       ; preds = %45
  %55 = load i32, ptr %5, align 4
  %56 = shl i32 %55, 3
  %57 = load i32, ptr %6, align 4
  %58 = mul i32 %57, %.08489
  %.not = icmp ugt i32 %58, %56
  br i1 %.not, label %.loopexit, label %.lr.ph94

.lr.ph94:                                         ; preds = %.preheader
  %59 = lshr exact i32 %.08489, 3
  br label %62

60:                                               ; preds = %45
  %61 = call ptr @expert_add_info(ptr noundef %1, ptr noundef %52, ptr noundef nonnull @ei_aaf_sample_width)
  br label %.loopexit

62:                                               ; preds = %.lr.ph94, %._crit_edge
  %.093 = phi i32 [ 0, %.lr.ph94 ], [ %73, %._crit_edge ]
  %.08592 = phi i32 [ 24, %.lr.ph94 ], [ %.1.lcssa, %._crit_edge ]
  %63 = load i32, ptr @ett_1722_aaf_sample, align 4
  %64 = call ptr (ptr, ptr, i32, i32, i32, ptr, ptr, ...) @proto_tree_add_subtree_format(ptr noundef %54, ptr noundef %0, i32 noundef %.08592, i32 noundef 1, i32 noundef %63, ptr noundef null, ptr noundef nonnull @.str.383, i32 noundef %.093)
  %65 = load i32, ptr %6, align 4
  %.not95 = icmp eq i32 %65, 0
  br i1 %.not95, label %._crit_edge, label %.lr.ph

.lr.ph:                                           ; preds = %62, %.lr.ph
  %.08391 = phi i32 [ %69, %.lr.ph ], [ 0, %62 ]
  %.190 = phi i32 [ %68, %.lr.ph ], [ %.08592, %62 ]
  %66 = load i32, ptr @hf_1722_aaf_sample, align 4
  %67 = call ptr @proto_tree_add_item(ptr noundef %64, i32 noundef %66, ptr noundef %0, i32 noundef %.190, i32 noundef %59, i32 noundef 0)
  call void (ptr, ptr, ...) @proto_item_prepend_text(ptr noundef %67, ptr noundef nonnull @.str.384, i32 noundef %.08391)
  %68 = add i32 %.190, %59
  %69 = add nuw i32 %.08391, 1
  %70 = load i32, ptr %6, align 4
  %71 = icmp ult i32 %69, %70
  br i1 %71, label %.lr.ph, label %._crit_edge, !llvm.loop !10

._crit_edge:                                      ; preds = %.lr.ph, %62
  %72 = phi i32 [ 0, %62 ], [ %70, %.lr.ph ]
  %.1.lcssa = phi i32 [ %.08592, %62 ], [ %68, %.lr.ph ]
  %73 = add nuw i32 %.093, 1
  %74 = load i32, ptr %5, align 4
  %75 = shl i32 %74, 3
  %76 = mul i32 %72, %.08489
  %77 = udiv i32 %75, %76
  %78 = icmp ult i32 %73, %77
  br i1 %78, label %62, label %.loopexit, !llvm.loop !11

79:                                               ; preds = %26
  %80 = icmp eq i32 %23, 5
  br i1 %80, label %81, label %83

81:                                               ; preds = %79
  %82 = call ptr @expert_add_info(ptr noundef %1, ptr noundef %22, ptr noundef nonnull @ei_aaf_aes3_format)
  br label %.loopexit

83:                                               ; preds = %79
  %84 = call ptr @expert_add_info(ptr noundef %1, ptr noundef %22, ptr noundef nonnull @ei_aaf_reserved_format)
  br label %.loopexit

.loopexit:                                        ; preds = %._crit_edge, %.preheader, %81, %83, %36, %60
  %85 = call i32 @tvb_captured_length(ptr noundef %0)
  call void @llvm.lifetime.end.p0(i64 4, ptr nonnull %8) #7
  call void @llvm.lifetime.end.p0(i64 4, ptr nonnull %7) #7
  call void @llvm.lifetime.end.p0(i64 4, ptr nonnull %6) #7
  call void @llvm.lifetime.end.p0(i64 4, ptr nonnull %5) #7
  ret i32 %85
}